	.cpu cortex-m4
	.eabi_attribute 27, 1
	.eabi_attribute 28, 1
	.eabi_attribute 20, 1
	.eabi_attribute 21, 1
	.eabi_attribute 23, 3
	.eabi_attribute 24, 1
	.eabi_attribute 25, 1
	.eabi_attribute 26, 1
	.eabi_attribute 30, 6
	.eabi_attribute 34, 1
	.eabi_attribute 18, 4
	.file	"hal_log.c"
	.text
.Ltext0:
	.section	.data.log_file_name,"aw"
	.align	2
	.type	log_file_name, %object
	.size	log_file_name, 8
log_file_name:
	.ascii	"log.txt\000"
	.section	.bss.fp,"aw",%nobits
	.align	2
	.type	fp, %object
	.size	fp, 4
fp:
	.space	4
	.section .rodata
	.align	2
.LC0:
	.ascii	"w\000"
	.section	.text.HAL_Log_GetFile,"ax",%progbits
	.align	1
	.global	HAL_Log_GetFile
	.syntax unified
	.thumb
	.thumb_func
	.fpu fpv4-sp-d16
	.type	HAL_Log_GetFile, %function
HAL_Log_GetFile:
.LFB0:
	.file 1 "C:\\Users\\ali\\Desktop\\Ali_Safaei\\5_GeoLocation_UWB\\UWB_sensors\\DWM1001\\Source_Code\\dwm1001_exm\\nRF5_SDK_14.2.0\\components\\libraries\\hal\\hal_log.c"
	.loc 1 28 1
	@ args = 0, pretend = 0, frame = 0
	@ frame_needed = 0, uses_anonymous_args = 0
	push	{r3, lr}
.LCFI0:
	.loc 1 29 10
	ldr	r3, .L4
	ldr	r3, [r3]
	.loc 1 29 6
	cmp	r3, #0
	beq	.L2
	.loc 1 31 14
	ldr	r3, .L4
	ldr	r3, [r3]
	b	.L3
.L2:
	.loc 1 33 9
	ldr	r1, .L4+4
	ldr	r0, .L4+8
	bl	fopen
	mov	r2, r0
	.loc 1 33 7
	ldr	r3, .L4
	str	r2, [r3]
	.loc 1 35 11
	ldr	r3, .L4
	ldr	r3, [r3]
.L3:
	.loc 1 36 1
	mov	r0, r3
	pop	{r3, pc}
.L5:
	.align	2
.L4:
	.word	fp
	.word	.LC0
	.word	log_file_name
.LFE0:
	.size	HAL_Log_GetFile, .-HAL_Log_GetFile
	.section	.text.HAL_Log_DeInit,"ax",%progbits
	.align	1
	.global	HAL_Log_DeInit
	.syntax unified
	.thumb
	.thumb_func
	.fpu fpv4-sp-d16
	.type	HAL_Log_DeInit, %function
HAL_Log_DeInit:
.LFB1:
	.loc 1 46 1
	@ args = 0, pretend = 0, frame = 0
	@ frame_needed = 0, uses_anonymous_args = 0
	push	{r3, lr}
.LCFI1:
	.loc 1 47 10
	ldr	r3, .L9
	ldr	r3, [r3]
	.loc 1 47 6
	cmp	r3, #0
	beq	.L8
	.loc 1 49 7
	ldr	r3, .L9
	ldr	r3, [r3]
	mov	r0, r3
	bl	fclose
	.loc 1 50 10
	ldr	r3, .L9
	movs	r2, #0
	str	r2, [r3]
.L8:
	.loc 1 52 1
	nop
	pop	{r3, pc}
.L10:
	.align	2
.L9:
	.word	fp
.LFE1:
	.size	HAL_Log_DeInit, .-HAL_Log_DeInit
	.section	.text.HAL_Log,"ax",%progbits
	.align	1
	.global	HAL_Log
	.syntax unified
	.thumb
	.thumb_func
	.fpu fpv4-sp-d16
	.type	HAL_Log, %function
HAL_Log:
.LFB2:
	.loc 1 62 1
	@ args = 4, pretend = 16, frame = 0
	@ frame_needed = 0, uses_anonymous_args = 1
	@ link register save eliminated.
	push	{r0, r1, r2, r3}
.LCFI2:
	.loc 1 70 1
	nop
	add	sp, sp, #16
.LCFI3:
	bx	lr
.LFE2:
	.size	HAL_Log, .-HAL_Log
	.section	.debug_frame,"",%progbits
.Lframe0:
	.4byte	.LECIE0-.LSCIE0
.LSCIE0:
	.4byte	0xffffffff
	.byte	0x3
	.ascii	"\000"
	.uleb128 0x1
	.sleb128 -4
	.uleb128 0xe
	.byte	0xc
	.uleb128 0xd
	.uleb128 0
	.align	2
.LECIE0:
.LSFDE0:
	.4byte	.LEFDE0-.LASFDE0
.LASFDE0:
	.4byte	.Lframe0
	.4byte	.LFB0
	.4byte	.LFE0-.LFB0
	.byte	0x4
	.4byte	.LCFI0-.LFB0
	.byte	0xe
	.uleb128 0x8
	.byte	0x83
	.uleb128 0x2
	.byte	0x8e
	.uleb128 0x1
	.align	2
.LEFDE0:
.LSFDE2:
	.4byte	.LEFDE2-.LASFDE2
.LASFDE2:
	.4byte	.Lframe0
	.4byte	.LFB1
	.4byte	.LFE1-.LFB1
	.byte	0x4
	.4byte	.LCFI1-.LFB1
	.byte	0xe
	.uleb128 0x8
	.byte	0x83
	.uleb128 0x2
	.byte	0x8e
	.uleb128 0x1
	.align	2
.LEFDE2:
.LSFDE4:
	.4byte	.LEFDE4-.LASFDE4
.LASFDE4:
	.4byte	.Lframe0
	.4byte	.LFB2
	.4byte	.LFE2-.LFB2
	.byte	0x4
	.4byte	.LCFI2-.LFB2
	.byte	0xe
	.uleb128 0x10
	.byte	0x80
	.uleb128 0x4
	.byte	0x81
	.uleb128 0x3
	.byte	0x82
	.uleb128 0x2
	.byte	0x83
	.uleb128 0x1
	.byte	0x4
	.4byte	.LCFI3-.LCFI2
	.byte	0xc3
	.byte	0xc2
	.byte	0xc1
	.byte	0xc0
	.byte	0xe
	.uleb128 0
	.align	2
.LEFDE4:
	.text
.Letext0:
	.file 2 "C:/Program Files/SEGGER/SEGGER Embedded Studio for ARM 4.18/include/__crossworks.h"
	.file 3 "C:/Program Files/SEGGER/SEGGER Embedded Studio for ARM 4.18/include/stdio.h"